(dp0
S'UI_SERVER_PORT'
p1
S'None'
p2
sS'DATA_SERVER_PORT'
p3
S'8000'
p4
sS'WORKDIR'
p5
S'/home/aspire/Documents/peko'
p6
sS'DATA_SERVER_IP'
p7
S'127.0.0.1'
p8
sS'DATA_SERVER_THREADS'
p9
I20
sS'DATA_SERVER_NAME'
p10
S'peko'
p11
sS'DEX_FILES_EXPIRE'
p12
S'400'
p13
sS'UI_SERVER_IP'
p14
g2
sS'TEMP_FILES_XPIRE'
p15
S'7'
p16
s.