(dp0
S'DATA_SERVER_NAME'
p1
S'peko.tk'
p2
sS'TEMP_FILES_XPIRE'
p3
S'7'
p4
sS'DEX_FILES_EXPIRE'
p5
S'400'
p6
sS'UI_SERVER_PORT'
p7
S''
p8
sS'WORKDIR'
p9
S'/home/aspire/Documents/peko'
p10
sS'DATA_SERVER_IP'
p11
S'127.0.0.1'
p12
sS'DATA_SERVER_THREADS'
p13
S'20'
p14
sS'UI_SERVER_THREADS'
p15
g8
sS'DATA_SERVER_PORT'
p16
S'8000'
p17
sS'UI_SERVER_NAME'
p18
g8
sS'UI_SERVER_IP'
p19
g8
s.