(dp0
S'LEST'
p1
(dp2
S'city'
p3
S'Santiago , Labacolla'
p4
sS'hemisf'
p5
S'N'
p6
sS'code'
p7
g1
sS'latitude'
p8
F42.899999999999999
sS'country'
p9
S'Spain'
p10
sS'medisf'
p11
S'W'
p12
sS'altitude'
p13
F370.0
sS'longitude'
p14
F-8.4333333333333336
ssS'EGYE'
p15
(dp16
g3
S'Barkston Heath Royal Air Force Base '
p17
sg5
g6
sg7
g15
sg8
F52.966666666666669
sg9
S'United Kingdom'
p18
sg11
g12
sg13
F112.0
sg14
F-0.56666666666666665
ssS'EGYD'
p19
(dp20
g3
S'Cranwell'
p21
sg5
g6
sg7
g19
sg8
F53.033333333333331
sg9
S'United Kingdom'
p22
sg11
g12
sg13
F67.0
sg14
F-0.5
ssS'EGYC'
p23
(dp24
g3
S'Coltishall'
p25
sg5
g6
sg7
g23
sg8
F52.43333333333333
sg9
S'United Kingdom'
p26
sg11
S'E'
p27
sg13
F20.0
sg14
F1.3500000000000001
ssS'EGCC'
p28
(dp29
g3
S'Manchester Airport'
p30
sg5
g6
sg7
g28
sg8
F53.350000000000001
sg9
S'United Kingdom'
p31
sg11
g12
sg13
F69.0
sg14
F-2.2833333333333332
ssS'EGYM'
p32
(dp33
g3
S'Marham'
p34
sg5
g6
sg7
g32
sg8
F52.649999999999999
sg9
S'United Kingdom'
p35
sg11
g27
sg13
F23.0
sg14
F0.56666666666666665
ssS'EGPK'
p36
(dp37
g3
S'Prestwick Airport'
p38
sg5
g6
sg7
g36
sg8
F55.5
sg9
S'United Kingdom'
p39
sg11
g12
sg13
F20.0
sg14
F-4.583333333333333
ssS'EGQS'
p40
(dp41
g3
S'Lossiemouth'
p42
sg5
g6
sg7
g40
sg8
F57.716666666666669
sg9
S'United Kingdom'
p43
sg11
g12
sg13
F13.0
sg14
F-3.3166666666666664
ssS'EGSH'
p44
(dp45
g3
S'Norwich Weather Centre'
p46
sg5
g6
sg7
g44
sg8
F52.633333333333333
sg9
S'United Kingdom'
p47
sg11
g27
sg13
F14.0
sg14
F1.3
ssS'EGYW'
p48
(dp49
g3
S'Wainfleet'
p50
sg5
g6
sg7
g48
sg8
F53.083333333333336
sg9
S'United Kingdom'
p51
sg11
g27
sg13
F3.0
sg14
F0.26666666666666666
ssS'EGPD'
p52
(dp53
g3
S'Aberdeen , Dyce'
p54
sg5
g6
sg7
g52
sg8
F57.200000000000003
sg9
S'United Kingdom'
p55
sg11
g12
sg13
F65.0
sg14
F-2.2166666666666668
ssS'EGQM'
p56
(dp57
g3
S'Boulmer'
p58
sg5
g6
sg7
g56
sg8
F55.416666666666664
sg9
S'United Kingdom'
p59
sg11
g12
sg13
F23.0
sg14
F-1.6000000000000001
ssS'EGQL'
p60
(dp61
g3
S'Leuchars'
p62
sg5
g6
sg7
g60
sg8
F56.383333333333333
sg9
S'United Kingdom'
p63
sg11
g12
sg13
F12.0
sg14
F-2.8666666666666667
ssS'EGQK'
p64
(dp65
g3
S'Kinloss'
p66
sg5
g6
sg7
g64
sg8
F57.649999999999999
sg9
S'United Kingdom'
p67
sg11
g12
sg13
F7.0
sg14
F-3.5666666666666664
ssS'LESA'
p68
(dp69
g3
S'Salamanca , Matacan'
p70
sg5
g6
sg7
g68
sg8
F40.950000000000003
sg9
S'Spain'
p71
sg11
g12
sg13
F793.0
sg14
F-5.5
ssS'EGHH'
p72
(dp73
g3
S'Bournemouth Airport'
p74
sg5
g6
sg7
g72
sg8
F50.783333333333331
sg9
S'United Kingdom'
p75
sg11
g12
sg13
F11.0
sg14
F-1.8333333333333335
ssS'LESO'
p76
(dp77
g3
S'San Sebastian , Fuenterrabia'
p78
sg5
g6
sg7
g76
sg8
F43.350000000000001
sg9
S'Spain'
p79
sg11
g12
sg13
F5.0
sg14
F-1.8
ssS'EGQA'
p80
(dp81
g3
S'Tain Range'
p82
sg5
g6
sg7
g80
sg8
F57.81666666666667
sg9
S'United Kingdom'
p83
sg11
g12
sg13
F4.0
sg14
F-3.9666666666666668
ssS'LEBG'
p84
(dp85
g3
S'Burgos , Villafria'
p86
sg5
g6
sg7
g84
sg8
F42.366666666666667
sg9
S'Spain'
p87
sg11
g12
sg13
F894.0
sg14
F-3.6333333333333333
ssS'SAVB'
p88
(dp89
g3
S'El Bolson Aerodrome'
p90
sg5
S'S'
p91
sg7
g88
sg8
F-41.966666666666669
sg9
S'Argentina'
p92
sg11
g12
sg13
F337.0
sg14
F-71.516666666666666
ssS'LEBB'
p93
(dp94
g3
S'Bilbao , Sondica'
p95
sg5
g6
sg7
g93
sg8
F43.299999999999997
sg9
S'Spain'
p96
sg11
g12
sg13
F42.0
sg14
F-2.9333333333333336
ssS'GCRR'
p97
(dp98
g3
S'Lanzarote , Aeropuerto'
p99
sg5
g6
sg7
g97
sg8
F28.949999999999999
sg9
S'Spain'
p100
sg11
g12
sg13
F14.0
sg14
F-13.6
ssS'SAWP'
p101
(dp102
g3
S'Perito Moreno Aerodrome'
p103
sg5
g91
sg7
g101
sg8
F-46.516666666666666
sg9
S'Argentina'
p104
sg11
g12
sg13
F429.0
sg14
F-71.016666666666666
ssS'LEBL'
p105
(dp106
g3
S'Barcelona , Aeropuerto'
p107
sg5
g6
sg7
g105
sg8
F41.283333333333331
sg9
S'Spain'
p108
sg11
g27
sg13
F4.0
sg14
F2.0666666666666669
ssS'SAWU'
p109
(dp110
g3
S'Santa Cruz Aerodrome'
p111
sg5
g91
sg7
g109
sg8
F-50.016666666666666
sg9
S'Argentina'
p112
sg11
g12
sg13
F113.0
sg14
F-68.566666666666663
ssS'LEJR'
p113
(dp114
g3
S'Jerez De La Fronteraaeropuerto'
p115
sg5
g6
sg7
g113
sg8
F36.75
sg9
S'Spain'
p116
sg11
g12
sg13
F27.0
sg14
F-6.0666666666666664
ssS'EGLC'
p117
(dp118
g3
S'London City Airport'
p119
sg5
g6
sg7
g117
sg8
F51.5
sg9
S'United Kingdom'
p120
sg11
g12
sg13
F5.0
sg14
F-0.5
ssS'EGPA'
p121
(dp122
g3
S'Kirkwall Airport'
p123
sg5
g6
sg7
g121
sg8
F58.950000000000003
sg9
S'United Kingdom'
p124
sg11
g12
sg13
F21.0
sg14
F-2.8999999999999999
ssS'SAWH'
p125
(dp126
g3
S'Ushuaia Aerodrome'
p127
sg5
g91
sg7
g125
sg8
F-54.799999999999997
sg9
S'Argentina'
p128
sg11
g12
sg13
F16.0
sg14
F-68.316666666666663
ssS'SAWJ'
p129
(dp130
g3
S'San Julian Aerodrome'
p131
sg5
g91
sg7
g129
sg8
F-49.31666666666667
sg9
S'Argentina'
p132
sg11
g12
sg13
F58.0
sg14
F-67.75
ssS'EGXZ'
p133
(dp134
g3
S'Topcliffe Royal Air Force Base '
p135
sg5
g6
sg7
g133
sg8
F54.200000000000003
sg9
S'United Kingdom'
p136
sg11
g12
sg13
F28.0
sg14
F-1.3833333333333333
ssS'SAWA'
p137
(dp138
g3
S'Lago Argentino Aerodrome'
p139
sg5
g91
sg7
g137
sg8
F-50.333333333333336
sg9
S'Argentina'
p140
sg11
g12
sg13
F223.0
sg14
F-72.299999999999997
ssS'SAWE'
p141
(dp142
g3
S'Rio Grande B. A.'
p143
sg5
g91
sg7
g141
sg8
F-53.799999999999997
sg9
S'Argentina'
p144
sg11
g12
sg13
F13.0
sg14
F-67.75
ssS'LEBZ'
p145
(dp146
g3
S'Badajoz , Talavera La Real'
p147
sg5
g6
sg7
g145
sg8
F38.883333333333333
sg9
S'Spain'
p148
sg11
g12
sg13
F185.0
sg14
F-6.8166666666666664
ssS'SAWG'
p149
(dp150
g3
S'Rio Gallegos Aerodrome'
p151
sg5
g91
sg7
g149
sg8
F-51.616666666666667
sg9
S'Argentina'
p152
sg11
g12
sg13
F20.0
sg14
F-69.283333333333331
ssS'SAVC'
p153
(dp154
g3
S'Comodoro Rivadavia Aerodrome'
p155
sg5
g91
sg7
g153
sg8
F-45.783333333333331
sg9
S'Argentina'
p156
sg11
g12
sg13
F58.0
sg14
F-67.5
ssS'EGXD'
p157
(dp158
g3
S'Disforth'
p159
sg5
g6
sg7
g157
sg8
F54.133333333333333
sg9
S'United Kingdom'
p160
sg11
g12
sg13
F36.0
sg14
F-1.4166666666666667
ssS'EGXE'
p161
(dp162
g3
S'Leeming'
p163
sg5
g6
sg7
g161
sg8
F54.299999999999997
sg9
S'United Kingdom'
p164
sg11
g12
sg13
F40.0
sg14
F-1.5333333333333332
ssS'EGXF'
p165
(dp166
g3
S'Cowden'
p167
sg5
g6
sg7
g165
sg8
F53.850000000000001
sg9
S'United Kingdom'
p168
sg11
g12
sg13
F15.0
sg14
F-6.0999999999999996
ssS'EGXG'
p169
(dp170
g3
S'Church Fenton'
p171
sg5
g6
sg7
g169
sg8
F53.833333333333336
sg9
S'United Kingdom'
p172
sg11
g12
sg13
F9.0
sg14
F-1.2
ssS'LELL'
p173
(dp174
g3
S'Sabadell'
p175
sg5
g6
sg7
g173
sg8
F41.516666666666666
sg9
S'Spain'
p176
sg11
g27
sg13
F250.0
sg14
F2.1000000000000001
ssS'LELO'
p177
(dp178
g3
S'Logrono , Agoncillo'
p179
sg5
g6
sg7
g177
sg8
F42.450000000000003
sg9
S'Spain'
p180
sg11
g12
sg13
F353.0
sg14
F-2.3333333333333335
ssS'LELN'
p181
(dp182
g3
S'Leon , Virgen Del Camino'
p183
sg5
g6
sg7
g181
sg8
F42.583333333333336
sg9
S'Spain'
p184
sg11
g12
sg13
F926.0
sg14
F-5.6500000000000004
ssS'EGPT'
p185
(dp186
g3
S'Perth , Scone '
p187
sg5
g6
sg7
g185
sg8
F56.450000000000003
sg9
S'United Kingdom'
p188
sg11
g12
sg13
F121.0
sg14
F-3.3666666666666667
ssS'EGGP'
p189
(dp190
g3
S'Liverpool Airport '
p191
sg5
g6
sg7
g189
sg8
F53.333333333333336
sg9
S'United Kingdom'
p192
sg11
g12
sg13
F26.0
sg14
F-2.8500000000000001
ssS'LELC'
p193
(dp194
g3
S'Murcia , San Javier'
p195
sg5
g6
sg7
g193
sg8
F37.783333333333331
sg9
S'Spain'
p196
sg11
g12
sg13
F5.0
sg14
F-0.80000000000000004
ssS'EGPW'
p197
(dp198
g3
S'Unst Island'
p199
sg5
g6
sg7
g197
sg8
F60.733333333333334
sg9
S'United Kingdom'
p200
sg11
g12
sg13
F285.0
sg14
F-0.81666666666666665
ssS'EGOM'
p201
(dp202
g3
S'Spadeadam'
p203
sg5
g6
sg7
g201
sg8
F55.049999999999997
sg9
S'United Kingdom'
p204
sg11
g12
sg13
F325.0
sg14
F-2.5499999999999998
ssS'EGGW'
p205
(dp206
g3
S'Luton Airport '
p207
sg5
g6
sg7
g205
sg8
F51.866666666666667
sg9
S'United Kingdom'
p208
sg11
g12
sg13
F160.0
sg14
F-0.36666666666666664
ssS'EGPL'
p209
(dp210
g3
S'Benbecula'
p211
sg5
g6
sg7
g209
sg8
F57.466666666666669
sg9
S'United Kingdom'
p212
sg11
g12
sg13
F6.0
sg14
F-7.3666666666666663
ssS'EGMD'
p213
(dp214
g3
S'Lydd Airport '
p215
sg5
g6
sg7
g213
sg8
F50.950000000000003
sg9
S'United Kingdom'
p216
sg11
g27
sg13
F3.0
sg14
F0.93333333333333335
ssS'EGOS'
p217
(dp218
g3
S'Shawbury'
p219
sg5
g6
sg7
g217
sg8
F52.799999999999997
sg9
S'United Kingdom'
p220
sg11
g12
sg13
F76.0
sg14
F-2.6666666666666665
ssS'EGPO'
p221
(dp222
g3
S'Stornoway'
p223
sg5
g6
sg7
g221
sg8
F58.216666666666669
sg9
S'United Kingdom'
p224
sg11
g12
sg13
F9.0
sg14
F-6.3166666666666664
ssS'EGPH'
p225
(dp226
g3
S'Edinburgh Airport'
p227
sg5
g6
sg7
g225
sg8
F55.950000000000003
sg9
S'United Kingdom'
p228
sg11
g12
sg13
F41.0
sg14
F-3.3500000000000001
ssS'GCTS'
p229
(dp230
g3
S'Tenerife Sur'
p231
sg5
g6
sg7
g229
sg8
F28.050000000000001
sg9
S'Spain'
p232
sg11
g12
sg13
F64.0
sg14
F-16.566666666666666
ssS'EGOW'
p233
(dp234
g3
S'Woodvale'
p235
sg5
S'4'
p236
sg7
g233
sg8
F53.56666666666667
sg9
S'United Kingdom'
p237
sg11
S'3'
p238
sg13
F11.0
sg14
F3.0499999999999998
ssS'EGOV'
p239
(dp240
g3
S'Valley'
p241
sg5
g6
sg7
g239
sg8
F53.25
sg9
S'United Kingdom'
p242
sg11
g12
sg13
F1.0
sg14
F-4.5333333333333332
ssS'EGOY'
p243
(dp244
g3
S'West Freugh'
p245
sg5
g6
sg7
g243
sg8
F54.850000000000001
sg9
S'United Kingdom'
p246
sg11
g12
sg13
F11.0
sg14
F-4.9500000000000002
ssS'EGPE'
p247
(dp248
g3
S'Inverness , Dalcross'
p249
sg5
g6
sg7
g247
sg8
F57.533333333333331
sg9
S'United Kingdom'
p250
sg11
g12
sg13
F9.0
sg14
F-4.0499999999999998
ssS'EGPF'
p251
(dp252
g3
S'Glasgow Airport'
p253
sg5
g6
sg7
g251
sg8
F55.866666666666667
sg9
S'United Kingdom'
p254
sg11
g12
sg13
F8.0
sg14
F-4.4333333333333336
ssS'EGUA'
p255
(dp256
g3
S'Upper Heyford Royal Air Force Base '
p257
sg5
g6
sg7
g255
sg8
F51.93333333333333
sg9
S'United Kingdom'
p258
sg11
g12
sg13
F134.0
sg14
F-1.25
ssS'EGGD'
p259
(dp260
g3
S'Bristol , Lulsgate '
p261
sg5
g6
sg7
g259
sg8
F51.383333333333333
sg9
S'United Kingdom'
p262
sg11
g12
sg13
F189.0
sg14
F-2.7166666666666668
ssS'EGPB'
p263
(dp264
g3
S'Sumburgh Cape '
p265
sg5
g6
sg7
g263
sg8
F59.883333333333333
sg9
S'United Kingdom'
p266
sg11
g12
sg13
F5.0
sg14
F-1.3
ssS'EGPC'
p267
(dp268
g3
S'Wick'
p269
sg5
g6
sg7
g267
sg8
F58.450000000000003
sg9
S'United Kingdom'
p270
sg11
g12
sg13
F39.0
sg14
F-3.0833333333333335
ssS'SAOR'
p271
(dp272
g3
S'Villa Reynolds Aerodrome'
p273
sg5
g91
sg7
g271
sg8
F-33.733333333333334
sg9
S'Argentina'
p274
sg11
g12
sg13
F485.0
sg14
F-65.38333333333334
ssS'SAOU'
p275
(dp276
g3
S'San Luis Aerodrome'
p277
sg5
g91
sg7
g275
sg8
F-33.266666666666666
sg9
S'Argentina'
p278
sg11
g12
sg13
F710.0
sg14
F-66.349999999999994
ssS'SAVY'
p279
(dp280
g3
S'Puerto Madryn, CHT'
p281
sg5
S'5'
p282
sg7
g279
sg8
F42.75
sg9
S'Argentina'
p283
sg11
S'6'
p284
sg13
F136.0
sg14
F65.099999999999994
ssS'SAVV'
p285
(dp286
g3
S'Viedma Aerodrome'
p287
sg5
g91
sg7
g285
sg8
F-40.850000000000001
sg9
S'Argentina'
p288
sg11
g12
sg13
F6.0
sg14
F-63.016666666666666
ssS'EGSY'
p289
(dp290
g3
S'Yorkshire and Humberside, Sheffield City'
p291
sg5
g238
sg7
g289
sg8
F53.383333333333333
sg9
S'United Kingdom'
p292
sg11
g238
sg13
F70.0
sg14
F1.3833333333333333
ssS'SAVT'
p293
(dp294
g3
S'Trelew Aerodrome'
p295
sg5
g91
sg7
g293
sg8
F-43.200000000000003
sg9
S'Argentina'
p296
sg11
g12
sg13
F39.0
sg14
F-65.266666666666666
ssS'LECO'
p297
(dp298
g3
S'La Coruna , Alvedro'
p299
sg5
g6
sg7
g297
sg8
F43.299999999999997
sg9
S'Spain'
p300
sg11
g12
sg13
F97.0
sg14
F-8.3833333333333329
ssS'LECH'
p301
(dp302
g3
S'Calamocha'
p303
sg5
g6
sg7
g301
sg8
F40.93333333333333
sg9
S'Spain'
p304
sg11
g12
sg13
F890.0
sg14
F-1.3
ssS'LETO'
p305
(dp306
g3
S'Madrid , Torrejon'
p307
sg5
g6
sg7
g305
sg8
F40.483333333333334
sg9
S'Spain'
p308
sg11
g12
sg13
F607.0
sg14
F-3.4500000000000002
ssS'EGHD'
p309
(dp310
g3
S'Plymouth , Roborough'
p311
sg5
g6
sg7
g309
sg8
F50.416666666666664
sg9
S'United Kingdom'
p312
sg11
g12
sg13
F25.0
sg14
F-4.1166666666666663
ssS'SAVO'
p313
(dp314
g3
S'San Antonio Oeste Aerodrome'
p315
sg5
g91
sg7
g313
sg8
F-40.783333333333331
sg9
S'Argentina'
p316
sg11
g12
sg13
F20.0
sg14
F-65.099999999999994
ssS'LECV'
p317
(dp318
g3
S'Madri-Colmenar'
p319
sg5
g6
sg7
g317
sg8
F40.649999999999999
sg9
S'Spain'
p320
sg11
g12
sg13
F10.0
sg14
F-3.7333333333333334
ssS'EGDC'
p321
(dp322
g3
S'Chivenor'
p323
sg5
g6
sg7
g321
sg8
F51.083333333333336
sg9
S'United Kingdom'
p324
sg11
g12
sg13
F8.0
sg14
F-4.1500000000000004
ssS'SAOD'
p325
(dp326
g3
S'Villa Dolores Aerodrome'
p327
sg5
g91
sg7
g325
sg8
F-31.949999999999999
sg9
S'Argentina'
p328
sg11
g12
sg13
F561.0
sg14
F-65.13333333333334
ssS'SARC'
p329
(dp330
g3
S'Corrientes Aero.'
p331
sg5
g91
sg7
g329
sg8
F-27.449999999999999
sg9
S'Argentina'
p332
sg11
g12
sg13
F62.0
sg14
F-58.766666666666666
ssS'EGNS'
p333
(dp334
g3
S'Isle Of Man , Ronaldsway Airport'
p335
sg5
g6
sg7
g333
sg8
F54.083333333333336
sg9
S'United Kingdom'
p336
sg11
g12
sg13
F17.0
sg14
F-4.6333333333333329
ssS'SAVE'
p337
(dp338
g3
S'Esquel Aerodrome'
p339
sg5
g91
sg7
g337
sg8
F-42.93333333333333
sg9
S'Argentina'
p340
sg11
g12
sg13
F789.0
sg14
F-71.150000000000006
ssS'SAOM'
p341
(dp342
g3
S'Marcos Juarez Aerodrome'
p343
sg5
g91
sg7
g341
sg8
F-32.700000000000003
sg9
S'Argentina'
p344
sg11
g12
sg13
F110.0
sg14
F-62.149999999999999
ssS'SAOL'
p345
(dp346
g3
S'Laboulaye'
p347
sg5
g91
sg7
g345
sg8
F-34.133333333333333
sg9
S'Argentina'
p348
sg11
g12
sg13
F136.0
sg14
F-63.366666666666667
ssS'EGQJ'
p349
(dp350
g3
S'Machrihanish'
p351
sg5
g6
sg7
g349
sg8
F55.43333333333333
sg9
S'United Kingdom'
p352
sg11
g12
sg13
F13.0
sg14
F-5.7000000000000002
ssS'EGBJ'
p353
(dp354
g3
S'Staverton Private '
p355
sg5
g6
sg7
g353
sg8
F51.899999999999999
sg9
S'United Kingdom'
p356
sg11
g12
sg13
F29.0
sg14
F-2.1666666666666665
ssS'EGBB'
p357
(dp358
g3
S'Birmingham , Airport'
p359
sg5
g6
sg7
g357
sg8
F52.450000000000003
sg9
S'United Kingdom'
p360
sg11
g12
sg13
F99.0
sg14
F-1.7333333333333334
ssS'EGBE'
p361
(dp362
g3
S'Coventry Airport '
p363
sg5
g6
sg7
g361
sg8
F52.366666666666667
sg9
S'United Kingdom'
p364
sg11
g12
sg13
F82.0
sg14
F-1.4833333333333334
ssS'GCHI'
p365
(dp366
g3
S'Hierro , Aeropuerto'
p367
sg5
g6
sg7
g365
sg8
F27.816666666666666
sg9
S'Spain'
p368
sg11
g12
sg13
F32.0
sg14
F-17.883333333333333
ssS'SAVP'
p369
(dp370
g3
S'Paso De Indios'
p371
sg5
g91
sg7
g369
sg8
F-43.81666666666667
sg9
S'Argentina'
p372
sg11
g12
sg13
F460.0
sg14
F-68.88333333333334
ssS'EGSC'
p373
(dp374
g3
S'Cambridge'
p375
sg5
g6
sg7
g373
sg8
F52.200000000000003
sg9
S'United Kingdom'
p376
sg11
g27
sg13
F15.0
sg14
F0.18333333333333332
ssS'EGHE'
p377
(dp378
g3
S'PITTSBURGH ALLEGHENY CTY.'
p379
sg5
g6
sg7
g377
sg8
F40.350000000000001
sg9
S'United States'
p380
sg11
g12
sg13
F382.0
sg14
F-79.916666666666671
ssS'SAOC'
p381
(dp382
g3
S'Rio Cuarto Aerodrome'
p383
sg5
g91
sg7
g381
sg8
F-33.116666666666667
sg9
S'Argentina'
p384
sg11
g12
sg13
F420.0
sg14
F-64.233333333333334
ssS'EGHI'
p385
(dp386
g3
S'Southampton , Weather Centre'
p387
sg5
g6
sg7
g385
sg8
F50.899999999999999
sg9
S'United Kingdom'
p388
sg11
g12
sg13
F9.0
sg14
F-1.3999999999999999
ssS'EGKK'
p389
(dp390
g3
S'London , Gatwick Airport'
p391
sg5
g6
sg7
g389
sg8
F51.149999999999999
sg9
S'United Kingdom'
p392
sg11
g12
sg13
F62.0
sg14
F-0.18333333333333332
ssS'SABA'
p393
(dp394
g3
S'Buenos Aires Palermo'
p395
sg5
g91
sg7
g393
sg8
F-34.583333333333336
sg9
S'Argentina'
p396
sg11
g12
sg13
F25.0
sg14
F-58.483333333333334
ssS'EGKA'
p397
(dp398
g3
S'Shoreham Airport'
p399
sg5
g6
sg7
g397
sg8
F50.833333333333336
sg9
S'United Kingdom'
p400
sg11
g12
sg13
F2.0
sg14
F-0.28333333333333333
ssS'SABE'
p401
(dp402
g3
S'Aeroparque Bs. As. Aerodrome'
p403
sg5
g91
sg7
g401
sg8
F-34.56666666666667
sg9
S'Argentina'
p404
sg11
g12
sg13
F6.0
sg14
F-58.416666666666664
ssS'EGUP'
p405
(dp406
g3
S'Sculthorpe Af Met '
p407
sg5
g6
sg7
g405
sg8
F52.850000000000001
sg9
S'United Kingdom'
p408
sg11
g27
sg13
F65.0
sg14
F0.76666666666666672
ssS'LERT'
p409
(dp410
g3
S'Rota'
p411
sg5
g6
sg7
g409
sg8
F36.649999999999999
sg9
S'Spain'
p412
sg11
g12
sg13
F26.0
sg14
F-6.3499999999999996
ssS'LERS'
p413
(dp414
g3
S'Reus , Aeropuerto'
p415
sg5
g6
sg7
g413
sg8
F41.149999999999999
sg9
S'Spain'
p416
sg11
g27
sg13
F71.0
sg14
F1.1666666666666667
ssS'EGUB'
p417
(dp418
g3
S'Benson'
p419
sg5
g6
sg7
g417
sg8
F51.616666666666667
sg9
S'United Kingdom'
p420
sg11
g12
sg13
F63.0
sg14
F-1.0833333333333333
ssS'EGRR'
p421
(dp422
g3
S'Bracknell , Beaufort Park'
p423
sg5
g6
sg7
g421
sg8
F51.383333333333333
sg9
S'United Kingdom'
p424
sg11
g12
sg13
F74.0
sg14
F-0.78333333333333333
ssS'EGAE'
p425
(dp426
g3
S'Eglinton , Londonderr'
p427
sg5
g6
sg7
g425
sg8
F55.049999999999997
sg9
S'United Kingdom'
p428
sg11
g12
sg13
F9.0
sg14
F-7.1500000000000004
ssS'EGAC'
p429
(dp430
g3
S'Belfast , Harbour'
p431
sg5
g6
sg7
g429
sg8
F54.600000000000001
sg9
S'United Kingdom'
p432
sg11
g12
sg13
F5.0
sg14
F-5.8833333333333329
ssS'SAWD'
p433
(dp434
g3
S'Puerto Deseado Aerodrome'
p435
sg5
g91
sg7
g433
sg8
F-47.733333333333334
sg9
S'Argentina'
p436
sg11
g12
sg13
F81.0
sg14
F-65.916666666666671
ssS'EGAA'
p437
(dp438
g3
S'Belfast , Aldergrove Airport'
p439
sg5
g6
sg7
g437
sg8
F54.649999999999999
sg9
S'United Kingdom'
p440
sg11
g12
sg13
F81.0
sg14
F-6.2166666666666668
ssS'EGRB'
p441
(dp442
g3
S'London Weather Centre'
p443
sg5
g6
sg7
g441
sg8
F51.516666666666666
sg9
S'United Kingdom'
p444
sg11
g12
sg13
F5.0
sg14
F-0.11666666666666667
ssS'SARP'
p445
(dp446
g3
S'Posadas Aero.'
p447
sg5
g91
sg7
g445
sg8
F-27.366666666666667
sg9
S'Argentina'
p448
sg11
g12
sg13
F131.0
sg14
F-55.966666666666669
ssS'LERI'
p449
(dp450
g3
S'Murcia , Alcantarilla'
p451
sg5
g6
sg7
g449
sg8
F37.950000000000003
sg9
S'Spain'
p452
sg11
g12
sg13
F75.0
sg14
F-1.2333333333333334
ssS'LEAB'
p453
(dp454
g3
S'Albacete , Los Llanos'
p455
sg5
g6
sg7
g453
sg8
F38.950000000000003
sg9
S'Spain'
p456
sg11
g12
sg13
F702.0
sg14
F-1.8500000000000001
ssS'EGEC'
p457
(dp458
g3
S'Campbeltown'
p459
sg5
g284
sg7
g457
sg8
F55.43333333333333
sg9
S'United Kingdom'
p460
sg11
S'1'
p461
sg13
F13.0
sg14
F5.6833333333333336
ssS'LEZL'
p462
(dp463
g3
S'Sevilla , San Pablo'
p464
sg5
g6
sg7
g462
sg8
F37.416666666666664
sg9
S'Spain'
p465
sg11
g12
sg13
F34.0
sg14
F-5.9000000000000004
ssS'LEBA'
p466
(dp467
g3
S'Cordoba , Aeropuerto'
p468
sg5
g6
sg7
g466
sg8
F37.850000000000001
sg9
S'Spain'
p469
sg11
g12
sg13
F90.0
sg14
F-4.8499999999999996
ssS'LEZG'
p470
(dp471
g3
S'Zaragoza , Aeropuerto'
p472
sg5
g6
sg7
g470
sg8
F41.666666666666664
sg9
S'Spain'
p473
sg11
g12
sg13
F263.0
sg14
F-1.0166666666666666
ssS'SAAV'
p474
(dp475
g3
S'Sauce Viejo Aerodrome'
p476
sg5
g91
sg7
g474
sg8
F-31.699999999999999
sg9
S'Argentina'
p477
sg11
g12
sg13
F17.0
sg14
F-60.81666666666667
ssS'SAAU'
p478
(dp479
g3
S'Villaguay Aerodrome'
p480
sg5
g91
sg7
g478
sg8
F-31.850000000000001
sg9
S'Argentina'
p481
sg11
g12
sg13
F40.0
sg14
F-59.083333333333336
ssS'SAAR'
p482
(dp483
g3
S'Rosario Aerodrome'
p484
sg5
g91
sg7
g482
sg8
F-32.916666666666664
sg9
S'Argentina'
p485
sg11
g12
sg13
F25.0
sg14
F-60.783333333333331
ssS'LEZA'
p486
(dp487
g3
S'Zaragoza'
p488
sg5
g6
sg7
g486
sg8
F41.666666666666664
sg9
S'Spain'
p489
sg11
g12
sg13
F263.0
sg14
F-1.05
ssS'SAAP'
p490
(dp491
g3
S'Parana Aerodrome'
p492
sg5
g91
sg7
g490
sg8
F-31.783333333333335
sg9
S'Argentina'
p493
sg11
g12
sg13
F74.0
sg14
F-60.483333333333334
ssS'EGJB'
p494
(dp495
g3
S'Guernsey Airport'
p496
sg5
g6
sg7
g494
sg8
F49.43333333333333
sg9
S'United Kingdom'
p497
sg11
g12
sg13
F102.0
sg14
F-2.6000000000000001
ssS'LEAS'
p498
(dp499
g3
S'Asturias , Aviles'
p500
sg5
g6
sg7
g498
sg8
F43.549999999999997
sg9
S'Spain'
p501
sg11
g12
sg13
F127.0
sg14
F-6.0333333333333332
ssS'EGJA'
p502
(dp503
g3
S'Alderney , Channel Island'
p504
sg5
g6
sg7
g502
sg8
F49.716666666666669
sg9
S'United Kingdom'
p505
sg11
g12
sg13
F71.0
sg14
F-2.2000000000000002
ssS'SAAJ'
p506
(dp507
g3
S'Junin Aerodrome'
p508
sg5
g91
sg7
g506
sg8
F-34.549999999999997
sg9
S'Argentina'
p509
sg11
g12
sg13
F82.0
sg14
F-60.916666666666664
ssS'EGXU'
p510
(dp511
g3
S'Linton-On-Ouse'
p512
sg5
g6
sg7
g510
sg8
F54.049999999999997
sg9
S'United Kingdom'
p513
sg11
g12
sg13
F16.0
sg14
F-1.25
ssS'SAAG'
p514
(dp515
g3
S'Gualeguaychu Aerodrome'
p516
sg5
g91
sg7
g514
sg8
F-33.0
sg9
S'Argentina'
p517
sg11
g12
sg13
F23.0
sg14
F-58.616666666666667
ssS'SAAC'
p518
(dp519
g3
S'Concordia Aerodrome'
p520
sg5
g91
sg7
g518
sg8
F-31.300000000000001
sg9
S'Argentina'
p521
sg11
g12
sg13
F35.0
sg14
F-58.016666666666666
ssS'EGDP'
p522
(dp523
g3
S'Portland , Rnas'
p524
sg5
g6
sg7
g522
sg8
F50.56666666666667
sg9
S'United Kingdom'
p525
sg11
g12
sg13
F3.0
sg14
F-2.4500000000000002
ssS'EGDR'
p526
(dp527
g3
S'Culdrose'
p528
sg5
g6
sg7
g526
sg8
F50.083333333333336
sg9
S'United Kingdom'
p529
sg11
g12
sg13
F78.0
sg14
F-5.25
ssS'SAWR'
p530
(dp531
g3
S'Gobernador Gregores Aerodrome'
p532
sg5
g91
sg7
g530
sg8
F-48.783333333333331
sg9
S'Argentina'
p533
sg11
g12
sg13
F358.0
sg14
F-70.166666666666671
ssS'EGDX'
p534
(dp535
g3
S'St Athan Royal Air Force Base'
p536
sg5
g6
sg7
g534
sg8
F51.399999999999999
sg9
S'United Kingdom'
p537
sg11
g12
sg13
F50.0
sg14
F-3.4333333333333336
ssS'EGDY'
p538
(dp539
g3
S'Yeovilton'
p540
sg5
g6
sg7
g538
sg8
F51.0
sg9
S'United Kingdom'
p541
sg11
g12
sg13
F23.0
sg14
F-2.6333333333333333
ssS'SACO'
p542
(dp543
g3
S'Cordoba Aerodrome'
p544
sg5
g91
sg7
g542
sg8
F-31.316666666666666
sg9
S'Argentina'
p545
sg11
g12
sg13
F484.0
sg14
F-64.216666666666669
ssS'SACI'
p546
(dp547
g3
S'Pilar Observatorio'
p548
sg5
g91
sg7
g546
sg8
F-31.666666666666668
sg9
S'Argentina'
p549
sg11
g12
sg13
F338.0
sg14
F-63.883333333333333
ssS'EGUN'
p550
(dp551
g3
S'Mildenhall Royal Air Force Base'
p552
sg5
g6
sg7
g550
sg8
F52.366666666666667
sg9
S'United Kingdom'
p553
sg11
g27
sg13
F10.0
sg14
F0.48333333333333334
ssS'SACT'
p554
(dp555
g3
S'Gobernador Gordillo'
p556
sg5
g91
sg7
g554
sg8
F-30.366666666666667
sg9
S'Argentina'
p557
sg11
g12
sg13
F457.0
sg14
F-66.299999999999997
ssS'EGDB'
p558
(dp559
g3
S'Plymouth'
p560
sg5
g6
sg7
g558
sg8
F50.350000000000001
sg9
S'United Kingdom'
p561
sg11
g12
sg13
F50.0
sg14
F-4.1166666666666663
ssS'SACV'
p562
(dp563
g3
S'Villa De Maria Del Rio Seco'
p564
sg5
g91
sg7
g562
sg8
F-29.899999999999999
sg9
S'Argentina'
p565
sg11
g12
sg13
F341.0
sg14
F-63.68333333333333
ssS'EGXV'
p566
(dp567
g3
S'Leconfield'
p568
sg5
g6
sg7
g566
sg8
F53.866666666666667
sg9
S'United Kingdom'
p569
sg11
g12
sg13
F6.0
sg14
F-0.43333333333333335
ssS'SACP'
p570
(dp571
g3
S'Chepes'
p572
sg5
g91
sg7
g570
sg8
F-31.333333333333332
sg9
S'Argentina'
p573
sg11
g12
sg13
F658.0
sg14
F-66.599999999999994
ssS'EGDG'
p574
(dp575
g3
S'Saint Mawgan'
p576
sg5
g6
sg7
g574
sg8
F50.43333333333333
sg9
S'United Kingdom'
p577
sg11
g12
sg13
F119.0
sg14
F-5.0
ssS'EGDK'
p578
(dp579
g3
S'Kemble Royal Air Force Base '
p580
sg5
g6
sg7
g578
sg8
F51.666666666666664
sg9
S'United Kingdom'
p581
sg11
g12
sg13
F133.0
sg14
F-2.0499999999999998
ssS'EGDL'
p582
(dp583
g3
S'Lyneham'
p584
sg5
g6
sg7
g582
sg8
F51.5
sg9
S'United Kingdom'
p585
sg11
g12
sg13
F145.0
sg14
F-1.9833333333333334
ssS'EGDM'
p586
(dp587
g3
S'Boscombe Down'
p588
sg5
g6
sg7
g586
sg8
F51.166666666666664
sg9
S'United Kingdom'
p589
sg11
g12
sg13
F124.0
sg14
F-1.75
ssS'GCFV'
p590
(dp591
g3
S'Fuerteventura , Aeropuerto'
p592
sg5
g6
sg7
g590
sg8
F28.449999999999999
sg9
S'Spain'
p593
sg11
g12
sg13
F22.0
sg14
F-13.866666666666667
ssS'EGUC'
p594
(dp595
g3
S'Aberporth'
p596
sg5
g6
sg7
g594
sg8
F52.133333333333333
sg9
S'United Kingdom'
p597
sg11
g12
sg13
F133.0
sg14
F-4.5666666666666664
ssS'SAST'
p598
(dp599
g3
S'Tartagal Aerodrome'
p600
sg5
g91
sg7
g598
sg8
F-22.649999999999999
sg9
S'Argentina'
p601
sg11
g12
sg13
F450.0
sg14
F-63.81666666666667
ssS'EGTG'
p602
(dp603
g3
S'Filton Private '
p604
sg5
g6
sg7
g602
sg8
F51.516666666666666
sg9
S'United Kingdom'
p605
sg11
g12
sg13
F69.0
sg14
F-2.5833333333333335
ssS'SASQ'
p606
(dp607
g3
S'La Quiaca Observatorio'
p608
sg5
g91
sg7
g606
sg8
F-22.100000000000001
sg9
S'Argentina'
p609
sg11
g12
sg13
F3462.0
sg14
F-65.599999999999994
ssS'EGUF'
p610
(dp611
g3
S'Farnborough Military '
p612
sg5
g6
sg7
g610
sg8
F51.283333333333331
sg9
S'United Kingdom'
p613
sg11
g12
sg13
F72.0
sg14
F-0.76666666666666672
ssS'SASR'
p614
(dp615
g3
S'Rivadavia'
p616
sg5
g91
sg7
g614
sg8
F-24.166666666666668
sg9
S'Argentina'
p617
sg11
g12
sg13
F205.0
sg14
F-62.899999999999999
ssS'EGSS'
p618
(dp619
g3
S'Stansted Airport'
p620
sg5
g6
sg7
g618
sg8
F51.883333333333333
sg9
S'United Kingdom'
p621
sg11
g27
sg13
F106.0
sg14
F0.23333333333333334
ssS'EGKB'
p622
(dp623
g3
S'Biggin Hill '
p624
sg5
g6
sg7
g622
sg8
F51.31666666666667
sg9
S'United Kingdom'
p625
sg11
g27
sg13
F183.0
sg14
F0.033333333333333333
ssS'EGUM'
p626
(dp627
g3
S'Manston'
p628
sg5
g6
sg7
g626
sg8
F51.350000000000001
sg9
S'United Kingdom'
p629
sg11
g27
sg13
F55.0
sg14
F1.3500000000000001
ssS'EGUL'
p630
(dp631
g3
S'Lakenheath Royal Air Force Base'
p632
sg5
g6
sg7
g630
sg8
F52.416666666666664
sg9
S'United Kingdom'
p633
sg11
g27
sg13
F10.0
sg14
F0.56666666666666665
ssS'EGMH'
p634
(dp635
g3
S'Manston, South East'
p636
sg5
S'0'
p637
sg7
g634
sg8
F51.333333333333336
sg9
S'United Kingdom'
p638
sg11
g637
sg13
F55.0
sg14
F1.3333333333333333
ssS'SASA'
p639
(dp640
g3
S'Salta Aerodrome'
p641
sg5
g91
sg7
g639
sg8
F-24.850000000000001
sg9
S'Argentina'
p642
sg11
g12
sg13
F1238.0
sg14
F-65.483333333333334
ssS'EGMC'
p643
(dp644
g3
S'Southend-On-Sea '
p645
sg5
g6
sg7
g643
sg8
F51.56666666666667
sg9
S'United Kingdom'
p646
sg11
g27
sg13
F15.0
sg14
F0.69999999999999996
ssS'EGUW'
p647
(dp648
g3
S'Wattisham'
p649
sg5
g6
sg7
g647
sg8
F52.116666666666667
sg9
S'United Kingdom'
p650
sg11
g27
sg13
F87.0
sg14
F0.96666666666666667
ssS'SASO'
p651
(dp652
g3
S'Oran Aerodrome'
p653
sg5
g91
sg7
g651
sg8
F-23.149999999999999
sg9
S'Argentina'
p654
sg11
g12
sg13
F357.0
sg14
F-64.316666666666663
ssS'EQYR'
p655
(dp656
g3
S'Rota, Naval Station'
p657
sg5
g6
sg7
g655
sg8
F36.649999999999999
sg9
S'Spain'
p658
sg11
g12
sg13
F26.0
sg14
F-6.333333333333333
ssS'EGNL'
p659
(dp660
g3
S'Walney Island'
p661
sg5
g6
sg7
g659
sg8
F54.116666666666667
sg9
S'United Kingdom'
p662
sg11
g12
sg13
F15.0
sg14
F-3.25
ssS'GEML'
p663
(dp664
g3
S'Melilla'
p665
sg5
g6
sg7
g663
sg8
F35.283333333333331
sg9
S'Spain'
p666
sg11
g12
sg13
F47.0
sg14
F-2.9500000000000002
ssS'SAZR'
p667
(dp668
g3
S'Santa Rosa Aerodrome'
p669
sg5
g91
sg7
g667
sg8
F-36.56666666666667
sg9
S'Argentina'
p670
sg11
g12
sg13
F190.0
sg14
F-64.266666666666666
ssS'SAZS'
p671
(dp672
g3
S'Bariloche Aerodrome'
p673
sg5
g91
sg7
g671
sg8
F-41.149999999999999
sg9
S'Argentina'
p674
sg11
g12
sg13
F845.0
sg14
F-71.166666666666671
ssS'SAZP'
p675
(dp676
g3
S'Pehuajo Aerodrome'
p677
sg5
g91
sg7
g675
sg8
F-35.866666666666667
sg9
S'Argentina'
p678
sg11
g12
sg13
F87.0
sg14
F-61.899999999999999
ssS'SAZQ'
p679
(dp680
g3
S'Rio Colorado'
p681
sg5
g91
sg7
g679
sg8
F-39.016666666666666
sg9
S'Argentina'
p682
sg11
g12
sg13
F79.0
sg14
F-64.083333333333329
ssS'SAZV'
p683
(dp684
g3
S'Villa Gesell'
p685
sg5
g91
sg7
g683
sg8
F-37.233333333333334
sg9
S'Argentina'
p686
sg11
g12
sg13
F7.0
sg14
F-57.033333333333331
ssS'GCXO'
p687
(dp688
g3
S'Tenerife , Los Rodeos'
p689
sg5
g6
sg7
g687
sg8
F28.466666666666665
sg9
S'Spain'
p690
sg11
g12
sg13
F632.0
sg14
F-16.316666666666666
ssS'SAZT'
p691
(dp692
g3
S'Tandil Aerodrome'
p693
sg5
g91
sg7
g691
sg8
F-37.233333333333334
sg9
S'Argentina'
p694
sg11
g12
sg13
F175.0
sg14
F-59.25
ssS'EGVO'
p695
(dp696
g3
S'Odiham'
p697
sg5
g6
sg7
g695
sg8
F51.233333333333334
sg9
S'United Kingdom'
p698
sg11
g12
sg13
F123.0
sg14
F-0.94999999999999996
ssS'EGYH'
p699
(dp700
g3
S'Holbeach'
p701
sg5
g6
sg7
g699
sg8
F52.866666666666667
sg9
S'United Kingdom'
p702
sg11
g27
sg13
F3.0
sg14
F0.14999999999999999
ssS'SAZY'
p703
(dp704
g3
S'Chapelco'
p705
sg5
g91
sg7
g703
sg8
F-40.083333333333336
sg9
S'Argentina'
p706
sg11
g12
sg13
F779.0
sg14
F-71.13333333333334
ssS'LEHI'
p707
(dp708
g3
S'Hinojosa'
p709
sg5
g6
sg7
g707
sg8
F38.516666666666666
sg9
S'Spain'
p710
sg11
g12
sg13
F540.0
sg14
F-5.1166666666666663
ssS'LEPP'
p711
(dp712
g3
S'Pamplona , Noain'
p713
sg5
g6
sg7
g711
sg8
F42.766666666666666
sg9
S'Spain'
p714
sg11
g12
sg13
F459.0
sg14
F-1.6333333333333333
ssS'SAZB'
p715
(dp716
g3
S'Bahia Blanca Aerodrome'
p717
sg5
g91
sg7
g715
sg8
F-38.733333333333334
sg9
S'Argentina'
p718
sg11
g12
sg13
F75.0
sg14
F-62.166666666666664
ssS'SAZA'
p719
(dp720
g3
S'Azul Airport'
p721
sg5
g91
sg7
g719
sg8
F-36.75
sg9
S'Argentina'
p722
sg11
g12
sg13
F132.0
sg14
F-59.833333333333336
ssS'SAZG'
p723
(dp724
g3
S'General Pico Aerodrome'
p725
sg5
g91
sg7
g723
sg8
F-35.700000000000003
sg9
S'Argentina'
p726
sg11
g12
sg13
F139.0
sg14
F-63.75
ssS'SAZD'
p727
(dp728
g3
S'Dolores Aerodrome'
p729
sg5
g91
sg7
g727
sg8
F-36.350000000000001
sg9
S'Argentina'
p730
sg11
g12
sg13
F10.0
sg14
F-57.733333333333334
ssS'SAZE'
p731
(dp732
g3
S'Pigue Aerodrome'
p733
sg5
g91
sg7
g731
sg8
F-37.600000000000001
sg9
S'Argentina'
p734
sg11
g12
sg13
F304.0
sg14
F-62.383333333333333
ssS'SAZH'
p735
(dp736
g3
S'Tres Arroyos'
p737
sg5
g91
sg7
g735
sg8
F-38.333333333333336
sg9
S'Argentina'
p738
sg11
g12
sg13
F115.0
sg14
F-60.25
ssS'LEPA'
p739
(dp740
g3
S'Palma De Mallorca , Son San Juan'
p741
sg5
g6
sg7
g739
sg8
F39.549999999999997
sg9
S'Spain'
p742
sg11
g27
sg13
F4.0
sg14
F2.7333333333333334
ssS'EGUY'
p743
(dp744
g3
S'Wyton Royal Air Force Base'
p745
sg5
g6
sg7
g743
sg8
F52.350000000000001
sg9
S'United Kingdom'
p746
sg11
g12
sg13
F41.0
sg14
F-0.11666666666666667
ssS'SAZM'
p747
(dp748
g3
S'Mar Del Plata Aerodrome'
p749
sg5
g91
sg7
g747
sg8
F-37.93333333333333
sg9
S'Argentina'
p750
sg11
g12
sg13
F18.0
sg14
F-57.583333333333336
ssS'SARI'
p751
(dp752
g3
S'Iguazu Aerodrome'
p753
sg5
g91
sg7
g751
sg8
F-25.733333333333334
sg9
S'Argentina'
p754
sg11
g12
sg13
F270.0
sg14
F-54.466666666666669
ssS'EGTE'
p755
(dp756
g3
S'Exeter Airport'
p757
sg5
g6
sg7
g755
sg8
F50.733333333333334
sg9
S'United Kingdom'
p758
sg11
g12
sg13
F30.0
sg14
F-3.4166666666666665
ssS'SARL'
p759
(dp760
g3
S'Paso De Los Libres Aerodrome'
p761
sg5
g91
sg7
g759
sg8
F-29.683333333333334
sg9
S'Argentina'
p762
sg11
g12
sg13
F69.0
sg14
F-57.149999999999999
ssS'SARM'
p763
(dp764
g3
S'Monte Caseros Aerodrome'
p765
sg5
g91
sg7
g763
sg8
F-30.266666666666666
sg9
S'Argentina'
p766
sg11
g12
sg13
F53.0
sg14
F-57.649999999999999
ssS'EGTH'
p767
(dp768
g3
S'Hatfeild Private '
p769
sg5
g6
sg7
g767
sg8
F51.766666666666666
sg9
S'United Kingdom'
p770
sg11
g12
sg13
F77.0
sg14
F-0.25
ssS'LEGA'
p771
(dp772
g3
S'Granada , Armilla'
p773
sg5
g6
sg7
g771
sg8
F37.133333333333333
sg9
S'Spain'
p774
sg11
S'8'
p775
sg13
F700.0
sg14
F3.6333333333333333
ssS'EGVI'
p776
(dp777
g3
S'Greenham Common Royal Air Force Base'
p778
sg5
g6
sg7
g776
sg8
F51.383333333333333
sg9
S'United Kingdom'
p779
sg11
g12
sg13
F122.0
sg14
F-1.2833333333333332
ssS'SARF'
p780
(dp781
g3
S'Formosa Aerodrome'
p782
sg5
g91
sg7
g780
sg8
F-26.199999999999999
sg9
S'Argentina'
p783
sg11
g12
sg13
F59.0
sg14
F-58.233333333333334
ssS'LEGE'
p784
(dp785
g3
S'Gerona , Costa Brava'
p786
sg5
g6
sg7
g784
sg8
F41.899999999999999
sg9
S'Spain'
p787
sg11
g27
sg13
F143.0
sg14
F2.7666666666666666
ssS'SARE'
p788
(dp789
g3
S'Resistencia Aero.'
p790
sg5
g91
sg7
g788
sg8
F-27.449999999999999
sg9
S'Argentina'
p791
sg11
g12
sg13
F53.0
sg14
F-59.049999999999997
ssS'EGLL'
p792
(dp793
g3
S'London , Heathrow Airport'
p794
sg5
g6
sg7
g792
sg8
F51.483333333333334
sg9
S'United Kingdom'
p795
sg11
g12
sg13
F24.0
sg14
F-0.45000000000000001
ssS'SARS'
p796
(dp797
g3
S'Presidencia Roque Saenz Pena Aerodrome'
p798
sg5
g91
sg7
g796
sg8
F-26.816666666666666
sg9
S'Argentina'
p799
sg11
g12
sg13
F91.0
sg14
F-60.450000000000003
ssS'LEGR'
p800
(dp801
g3
S'Granada , Aeropuerto'
p802
sg5
g6
sg7
g800
sg8
F37.18333333333333
sg9
S'Spain'
p803
sg11
g12
sg13
F567.0
sg14
F-3.7833333333333332
ssS'SASJ'
p804
(dp805
g3
S'Jujuy Aerodrome'
p806
sg5
g91
sg7
g804
sg8
F-24.383333333333333
sg9
S'Argentina'
p807
sg11
g12
sg13
F921.0
sg14
F-65.083333333333329
ssS'LEGT'
p808
(dp809
g3
S'Madrid , Getafe'
p810
sg5
g6
sg7
g808
sg8
F40.299999999999997
sg9
S'Spain'
p811
sg11
g12
sg13
F620.0
sg14
F-3.7166666666666668
ssS'EGWZ'
p812
(dp813
g3
S'Alconbury Royal Air Force Base'
p814
sg5
g6
sg7
g812
sg8
F52.366666666666667
sg9
S'United Kingdom'
p815
sg11
g12
sg13
F49.0
sg14
F-0.21666666666666667
ssS'EGLF'
p816
(dp817
g3
S'Farnborough'
p818
sg5
g6
sg7
g816
sg8
F51.283333333333331
sg9
S'United Kingdom'
p819
sg11
g12
sg13
F65.0
sg14
F-0.76666666666666672
ssS'LEXJ'
p820
(dp821
g3
S'Santander , Parayas'
p822
sg5
g6
sg7
g820
sg8
F43.43333333333333
sg9
S'Spain'
p823
sg11
g12
sg13
F6.0
sg14
F-3.8166666666666664
ssS'LEMO'
p824
(dp825
g3
S'Moron De La Frontera'
p826
sg5
g6
sg7
g824
sg8
F37.149999999999999
sg9
S'Spain'
p827
sg11
g12
sg13
F87.0
sg14
F-5.6166666666666671
ssS'EGNC'
p828
(dp829
g3
S'Carlisle'
p830
sg5
g6
sg7
g828
sg8
F54.93333333333333
sg9
S'United Kingdom'
p831
sg11
g12
sg13
F26.0
sg14
F-2.9500000000000002
ssS'LEMH'
p832
(dp833
g3
S'Menorca , Mahon'
p834
sg5
g6
sg7
g832
sg8
F39.866666666666667
sg9
S'Spain'
p835
sg11
g27
sg13
F87.0
sg14
F4.2333333333333334
ssS'EGUO'
p836
(dp837
g3
S'Colerne'
p838
sg5
g284
sg7
g836
sg8
F51.43333333333333
sg9
S'United Kingdom'
p839
sg11
S'7'
p840
sg13
F181.0
sg14
F2.2833333333333332
ssS'SAZN'
p841
(dp842
g3
S'Neuquen Aerodrome'
p843
sg5
g91
sg7
g841
sg8
F-38.950000000000003
sg9
S'Argentina'
p844
sg11
g12
sg13
F270.0
sg14
F-68.13333333333334
ssS'LEMG'
p845
(dp846
g3
S'Malaga , Aeropuerto'
p847
sg5
g6
sg7
g845
sg8
F36.666666666666664
sg9
S'Spain'
p848
sg11
g12
sg13
F16.0
sg14
F-4.4833333333333334
ssS'LEMD'
p849
(dp850
g3
S'Madrid , Barajas'
p851
sg5
g6
sg7
g849
sg8
F40.450000000000003
sg9
S'Spain'
p852
sg11
g12
sg13
F609.0
sg14
F-3.5499999999999998
ssS'EGNM'
p853
(dp854
g3
S'Leeds And Bradford'
p855
sg5
g6
sg7
g853
sg8
F53.866666666666667
sg9
S'United Kingdom'
p856
sg11
g12
sg13
F208.0
sg14
F-1.6499999999999999
ssS'EGNJ'
p857
(dp858
g3
S'Humberside'
p859
sg5
g6
sg7
g857
sg8
F53.583333333333336
sg9
S'United Kingdom'
p860
sg11
g12
sg13
F31.0
sg14
F-0.34999999999999998
ssS'EGNH'
p861
(dp862
g3
S'Blackpool Airport'
p863
sg5
g6
sg7
g861
sg8
F53.766666666666666
sg9
S'United Kingdom'
p864
sg11
g12
sg13
F10.0
sg14
F-3.0333333333333332
ssS'EGPM'
p865
(dp866
g3
S'Scatsa , Shetland Island'
p867
sg5
g6
sg7
g865
sg8
F60.43333333333333
sg9
S'United Kingdom'
p868
sg11
g12
sg13
F22.0
sg14
F-1.3
ssS'EGNV'
p869
(dp870
g3
S'Tees-Side'
p871
sg5
g6
sg7
g869
sg8
F54.516666666666666
sg9
S'United Kingdom'
p872
sg11
g12
sg13
F37.0
sg14
F-1.4166666666666667
ssS'EGNT'
p873
(dp874
g3
S'Newcastle '
p875
sg5
g6
sg7
g873
sg8
F55.033333333333331
sg9
S'United Kingdom'
p876
sg11
g12
sg13
F81.0
sg14
F-1.7
ssS'EGNR'
p877
(dp878
g3
S'Hawarden'
p879
sg5
g6
sg7
g877
sg8
F53.166666666666664
sg9
S'United Kingdom'
p880
sg11
g12
sg13
F10.0
sg14
F-2.9833333333333334
ssS'LEAL'
p881
(dp882
g3
S'Alicante , El Altet'
p883
sg5
g6
sg7
g881
sg8
F38.283333333333331
sg9
S'Spain'
p884
sg11
g12
sg13
F43.0
sg14
F-0.55000000000000004
ssS'EGFH'
p885
(dp886
g3
S'Swansea'
p887
sg5
g6
sg7
g885
sg8
F51.600000000000001
sg9
S'United Kingdom'
p888
sg11
g12
sg13
F90.0
sg14
F-4.0666666666666664
ssS'EGFF'
p889
(dp890
g3
S'Cardiff-Wales Airport'
p891
sg5
g6
sg7
g889
sg8
F51.399999999999999
sg9
S'United Kingdom'
p892
sg11
g12
sg13
F67.0
sg14
F-3.3500000000000001
ssS'SAEZ'
p893
(dp894
g3
S'Ezeiza Aerodrome'
p895
sg5
g91
sg7
g893
sg8
F-34.81666666666667
sg9
S'Argentina'
p896
sg11
g12
sg13
F20.0
sg14
F-58.533333333333331
ssS'LEAM'
p897
(dp898
g3
S'Almeria , Aeropuerto'
p899
sg5
g6
sg7
g897
sg8
F36.850000000000001
sg9
S'Spain'
p900
sg11
g12
sg13
F15.0
sg14
F-2.3833333333333333
ssS'EGNX'
p901
(dp902
g3
S'East Midlands'
p903
sg5
g6
sg7
g901
sg8
F52.833333333333336
sg9
S'United Kingdom'
p904
sg11
g12
sg13
F94.0
sg14
F-1.3333333333333333
ssS'EGOD'
p905
(dp906
g3
S'Llanbedr'
p907
sg5
g6
sg7
g905
sg8
F52.81666666666667
sg9
S'United Kingdom'
p908
sg11
g12
sg13
F9.0
sg14
F-4.1333333333333337
ssS'SANW'
p909
(dp910
g3
S'Ceres Aerodrome'
p911
sg5
g91
sg7
g909
sg8
F-29.883333333333333
sg9
S'Argentina'
p912
sg11
g12
sg13
F87.0
sg14
F-61.950000000000003
ssS'SANT'
p913
(dp914
g3
S'Tucuman Aerodrome'
p915
sg5
g91
sg7
g913
sg8
F-26.850000000000001
sg9
S'Argentina'
p916
sg11
g12
sg13
F440.0
sg14
F-65.099999999999994
ssS'SANU'
p917
(dp918
g3
S'San Juan Aerodrome'
p919
sg5
g91
sg7
g917
sg8
F-31.566666666666666
sg9
S'Argentina'
p920
sg11
g12
sg13
F597.0
sg14
F-68.86666666666666
ssS'EGXT'
p921
(dp922
g3
S'Wittering'
p923
sg5
g6
sg7
g921
sg8
F52.616666666666667
sg9
S'United Kingdom'
p924
sg11
g12
sg13
F84.0
sg14
F-0.46666666666666667
ssS'EGWC'
p925
(dp926
g3
S'Cosford Royal Air Force Base'
p927
sg5
g6
sg7
g925
sg8
F52.633333333333333
sg9
S'United Kingdom'
p928
sg11
g12
sg13
F83.0
sg14
F-2.2999999999999998
ssS'EGXC'
p929
(dp930
g3
S'Coningsby Royal Air Force Base'
p931
sg5
g6
sg7
g929
sg8
F53.083333333333336
sg9
S'United Kingdom'
p932
sg11
g12
sg13
F7.0
sg14
F-0.16666666666666666
ssS'GCLA'
p933
(dp934
g3
S'La Palma , Aeropuerto'
p935
sg5
g6
sg7
g933
sg8
F28.616666666666667
sg9
S'Spain'
p936
sg11
g12
sg13
F29.0
sg14
F-17.75
ssS'SANE'
p937
(dp938
g3
S'Santiago Del Estero Aero.'
p939
sg5
g91
sg7
g937
sg8
F-27.766666666666666
sg9
S'Argentina'
p940
sg11
g12
sg13
F198.0
sg14
F-64.299999999999997
ssS'SANC'
p941
(dp942
g3
S'Catamarca Aero.'
p943
sg5
g91
sg7
g941
sg8
F-28.600000000000001
sg9
S'Argentina'
p944
sg11
g12
sg13
F454.0
sg14
F-65.766666666666666
ssS'EGPU'
p945
(dp946
g3
S'Tiree'
p947
sg5
g6
sg7
g945
sg8
F56.5
sg9
S'United Kingdom'
p948
sg11
g12
sg13
F12.0
sg14
F-6.8833333333333329
ssS'SANO'
p949
(dp950
g3
S'Chilecito'
p951
sg5
g91
sg7
g949
sg8
F-29.216666666666665
sg9
S'Argentina'
p952
sg11
g12
sg13
F950.0
sg14
F-67.433333333333337
ssS'SANL'
p953
(dp954
g3
S'La Rioja Aero.'
p955
sg5
g91
sg7
g953
sg8
F-29.383333333333333
sg9
S'Argentina'
p956
sg11
g12
sg13
F438.0
sg14
F-66.816666666666663
ssS'EGWU'
p957
(dp958
g3
S'Northolt'
p959
sg5
g6
sg7
g957
sg8
F51.549999999999997
sg9
S'United Kingdom'
p960
sg11
g12
sg13
F38.0
sg14
F-0.41666666666666669
ssS'EGXN'
p961
(dp962
g3
S'Newton'
p963
sg5
g6
sg7
g961
sg8
F52.966666666666669
sg9
S'United Kingdom'
p964
sg11
g12
sg13
F55.0
sg14
F-0.98333333333333328
ssS'GCLP'
p965
(dp966
g3
S'Gran Canaria - Canary Islands'
p967
sg5
g6
sg7
g965
sg8
F27.933333333333334
sg9
S'Spain'
p968
sg11
g12
sg13
F23.0
sg14
F-15.383333333333333
ssS'SANI'
p969
(dp970
g3
S'Tinogasta'
p971
sg5
g91
sg7
g969
sg8
F-28.066666666666666
sg9
S'Argentina'
p972
sg11
g12
sg13
F1201.0
sg14
F-67.566666666666663
ssS'LEVX'
p973
(dp974
g3
S'Vigo , Peinador'
p975
sg5
g6
sg7
g973
sg8
F42.216666666666669
sg9
S'Spain'
p976
sg11
g12
sg13
F264.0
sg14
F-8.6333333333333329
ssS'SADD'
p977
(dp978
g3
S'Don Torcuato Aerodrome'
p979
sg5
g91
sg7
g977
sg8
F-34.483333333333334
sg9
S'Argentina'
p980
sg11
g12
sg13
F5.0
sg14
F-58.616666666666667
ssS'SADF'
p981
(dp982
g3
S'San Fernando, BA'
p983
sg5
g840
sg7
g981
sg8
F34.450000000000003
sg9
S'Argentina'
p984
sg11
g282
sg13
F3.0
sg14
F58.583333333333336
ssS'LEVS'
p985
(dp986
g3
S'Madrid , Cuatro Vientos'
p987
sg5
g6
sg7
g985
sg8
F40.383333333333333
sg9
S'Spain'
p988
sg11
g12
sg13
F690.0
sg14
F-3.7833333333333332
ssS'EGXH'
p989
(dp990
g3
S'Honington Royal Air Force Base'
p991
sg5
g6
sg7
g989
sg8
F52.333333333333336
sg9
S'United Kingdom'
p992
sg11
g27
sg13
F54.0
sg14
F0.76666666666666672
ssS'SADL'
p993
(dp994
g3
S'La Plata Aerodrome'
p995
sg5
g91
sg7
g993
sg8
F-34.966666666666669
sg9
S'Argentina'
p996
sg11
g12
sg13
F21.0
sg14
F-57.899999999999999
ssS'EGJJ'
p997
(dp998
g3
S'Jersey Airport'
p999
sg5
g6
sg7
g997
sg8
F49.216666666666669
sg9
S'United Kingdom'
p1000
sg11
g12
sg13
F84.0
sg14
F-2.2000000000000002
ssS'LEVT'
p1001
(dp1002
g3
S'Vitoria'
p1003
sg5
g6
sg7
g1001
sg8
F42.883333333333333
sg9
S'Spain'
p1004
sg11
g12
sg13
F513.0
sg14
F-2.7166666666666668
ssS'SADP'
p1005
(dp1006
g3
S'El Palomar Aerodrome'
p1007
sg5
g91
sg7
g1005
sg8
F-34.600000000000001
sg9
S'Argentina'
p1008
sg11
g12
sg13
F18.0
sg14
F-58.600000000000001
ssS'LEIB'
p1009
(dp1010
g3
S'Ibiza , Es Codola'
p1011
sg5
g6
sg7
g1009
sg8
F38.866666666666667
sg9
S'Spain'
p1012
sg11
g27
sg13
F7.0
sg14
F1.3833333333333333
ssS'EGXJ'
p1013
(dp1014
g3
S'Cottesmore'
p1015
sg5
g6
sg7
g1013
sg8
F52.733333333333334
sg9
S'United Kingdom'
p1016
sg11
g12
sg13
F138.0
sg14
F-0.65000000000000002
ssS'LEVC'
p1017
(dp1018
g3
S'Valencia , Aeropuerto'
p1019
sg5
g6
sg7
g1017
sg8
F39.5
sg9
S'Spain'
p1020
sg11
g12
sg13
F69.0
sg14
F-0.46666666666666667
ssS'LEVD'
p1021
(dp1022
g3
S'Valladolid , Villanubla'
p1023
sg5
g6
sg7
g1021
sg8
F41.716666666666669
sg9
S'Spain'
p1024
sg11
g12
sg13
F849.0
sg14
F-4.8499999999999996
ssS'EGVN'
p1025
(dp1026
g3
S'Brize Norton'
p1027
sg5
g6
sg7
g1025
sg8
F51.75
sg9
S'United Kingdom'
p1028
sg11
g12
sg13
F88.0
sg14
F-1.5833333333333335
ssS'SAMJ'
p1029
(dp1030
g3
S'Jachal'
p1031
sg5
g91
sg7
g1029
sg8
F-30.25
sg9
S'Argentina'
p1032
sg11
g12
sg13
F1165.0
sg14
F-68.75
ssS'SAMI'
p1033
(dp1034
g3
S'San Martin'
p1035
sg5
g91
sg7
g1033
sg8
F-33.083333333333336
sg9
S'Argentina'
p1036
sg11
g12
sg13
F653.0
sg14
F-68.416666666666671
ssS'EGVJ'
p1037
(dp1038
g3
S'Bentwaters Royal Air Force Base '
p1039
sg5
g6
sg7
g1037
sg8
F52.133333333333333
sg9
S'United Kingdom'
p1040
sg11
g27
sg13
F26.0
sg14
F1.4333333333333333
ssS'SATU'
p1041
(dp1042
g3
S'Curuzu Cuatia Aerodrome'
p1043
sg5
g91
sg7
g1041
sg8
F-29.783333333333335
sg9
S'Argentina'
p1044
sg11
g12
sg13
F80.0
sg14
F-57.983333333333334
ssS'SAMM'
p1045
(dp1046
g3
S'Malargue Aerodrome'
p1047
sg5
g91
sg7
g1045
sg8
F-35.5
sg9
S'Argentina'
p1048
sg11
g12
sg13
F1426.0
sg14
F-69.583333333333329
ssS'EGOP'
p1049
(dp1050
g3
S'Pembrey Sands'
p1051
sg5
g6
sg7
g1049
sg8
F51.716666666666669
sg9
S'United Kingdom'
p1052
sg11
g12
sg13
F3.0
sg14
F-4.3666666666666663
ssS'EGVG'
p1053
(dp1054
g3
S'Woodbridge Royal Air Force Base '
p1055
sg5
g6
sg7
g1053
sg8
F52.083333333333336
sg9
S'United Kingdom'
p1056
sg11
g27
sg13
F29.0
sg14
F1.3999999999999999
ssS'EGTC'
p1057
(dp1058
g3
S'Cranfield'
p1059
sg5
g6
sg7
g1057
sg8
F52.06666666666667
sg9
S'United Kingdom'
p1060
sg11
g12
sg13
F111.0
sg14
F-0.6166666666666667
ssS'EGPN'
p1061
(dp1062
g3
S'Dundee , Riverside'
p1063
sg5
g6
sg7
g1061
sg8
F56.450000000000003
sg9
S'United Kingdom'
p1064
sg11
g12
sg13
F4.0
sg14
F-3.0166666666666666
ssS'SAME'
p1065
(dp1066
g3
S'Mendoza Aerodrome'
p1067
sg5
g91
sg7
g1065
sg8
F-32.833333333333336
sg9
S'Argentina'
p1068
sg11
g12
sg13
F705.0
sg14
F-68.783333333333331
ssS'EGVA'
p1069
(dp1070
g3
S'Fairford Royal Air Force Base'
p1071
sg5
g6
sg7
g1069
sg8
F51.68333333333333
sg9
S'United Kingdom'
p1072
sg11
g12
sg13
F87.0
sg14
F-1.7833333333333332
ssS'SATR'
p1073
(dp1074
g3
S'Reconquista, SF'
p1075
sg5
S'2'
p1076
sg7
g1073
sg8
F29.199999999999999
sg9
S'Argentina'
p1077
sg11
g461
sg13
F49.0
sg14
F59.68333333333333
ssS'EGXW'
p1078
(dp1079
g3
S'Waddington'
p1080
sg5
g6
sg7
g1078
sg8
F53.166666666666664
sg9
S'United Kingdom'
p1081
sg11
g12
sg13
F68.0
sg14
F-0.51666666666666672
ssS'EGVP'
p1082
(dp1083
g3
S'Middle Wallop'
p1084
sg5
g6
sg7
g1082
sg8
F51.149999999999999
sg9
S'United Kingdom'
p1085
sg11
g12
sg13
F91.0
sg14
F-1.5666666666666667
ssS'SAMS'
p1086
(dp1087
g3
S'San Carlos'
p1088
sg5
g91
sg7
g1086
sg8
F-33.766666666666666
sg9
S'Argentina'
p1089
sg11
g12
sg13
F940.0
sg14
F-69.033333333333331
ssS'SAMR'
p1090
(dp1091
g3
S'San Rafael Aerodrome'
p1092
sg5
g91
sg7
g1090
sg8
F-34.583333333333336
sg9
S'Argentina'
p1093
sg11
g12
sg13
F745.0
sg14
F-68.400000000000006
ssS'SATK'
p1094
(dp1095
g3
S'Las Lomitas'
p1096
sg5
g91
sg7
g1094
sg8
F-24.699999999999999
sg9
S'Argentina'
p1097
sg11
g12
sg13
F130.0
sg14
F-60.583333333333336
ssS'EGXP'
p1098
(dp1099
g3
S'Scampton'
p1100
sg5
g775
sg7
g1098
sg8
F53.299999999999997
sg9
S'United Kingdom'
p1101
sg11
g238
sg13
F62.0
sg14
F0.55000000000000004
ssS'SAMU'
p1102
(dp1103
g3
S'Uspallata'
p1104
sg5
g91
sg7
g1102
sg8
F-32.600000000000001
sg9
S'Argentina'
p1105
sg11
g12
sg13
F1844.0
sg14
F-69.333333333333329
ssS'EGPI'
p1106
(dp1107
g3
S'Islay'
p1108
sg5
g637
sg7
g1106
sg8
F55.666666666666664
sg9
S'United Kingdom'
p1109
sg11
g282
sg13
F16.0
sg14
F6.25
ss.